target datalayout = "e-m:e-p270:32:32-p271:32:32-p272:64:64-i64:64-i128:128-f80:128-n8:16:32:64-S128"
target triple = "x86_64-pc-linux-gnu"

%class.ABstats = type { [8 x %"class.std::__cxx11::basic_string"], %struct.ABtracker, %struct.ABtracker, [2 x %struct.ABtracker], [8 x %struct.ABtracker] }
%"class.std::__cxx11::basic_string" = type { %"struct.std::__cxx11::basic_string<char>::_Alloc_hider", i64, %union.anon }
%"struct.std::__cxx11::basic_string<char>::_Alloc_hider" = type { ptr }
%union.anon = type { i64, [8 x i8] }
%struct.ABtracker = type { [49 x i32], i32, i32, i32, i32 }

; Function Attrs: mustprogress nounwind uwtable
define void @_ZN7ABstats8IncrNodeEi(ptr noundef nonnull align 8 dereferenceable(2800) %0, i32 noundef %1) #5 align 2 {
  %3 = alloca ptr, align 8
  %4 = alloca i32, align 4
  store ptr %0, ptr %3, align 8
  store i32 %1, ptr %4, align 4
  %5 = load ptr, ptr %3, align 8
  %6 = getelementptr inbounds nuw %class.ABstats, ptr %5, i32 0, i32 1
  %7 = getelementptr inbounds nuw %struct.ABtracker, ptr %6, i32 0, i32 0
  %8 = load i32, ptr %4, align 4
  %9 = sext i32 %8 to i64
  %10 = getelementptr inbounds [49 x i32], ptr %7, i64 0, i64 %9
  %11 = load i32, ptr %10, align 4
  %12 = add nsw i32 %11, 1
  store i32 %12, ptr %10, align 4
  %13 = getelementptr inbounds nuw %class.ABstats, ptr %5, i32 0, i32 1
  %14 = getelementptr inbounds nuw %struct.ABtracker, ptr %13, i32 0, i32 1
  %15 = load i32, ptr %14, align 4
  %16 = add nsw i32 %15, 1
  store i32 %16, ptr %14, align 4
  %17 = load i32, ptr %4, align 4
  %18 = getelementptr inbounds nuw %class.ABstats, ptr %5, i32 0, i32 1
  %19 = getelementptr inbounds nuw %struct.ABtracker, ptr %18, i32 0, i32 2
  %20 = load i32, ptr %19, align 8
  %21 = add nsw i32 %20, %17
  store i32 %21, ptr %19, align 8
  %22 = getelementptr inbounds nuw %class.ABstats, ptr %5, i32 0, i32 2
  %23 = getelementptr inbounds nuw %struct.ABtracker, ptr %22, i32 0, i32 0
  %24 = load i32, ptr %4, align 4
  %25 = sext i32 %24 to i64
  %26 = getelementptr inbounds [49 x i32], ptr %23, i64 0, i64 %25
  %27 = load i32, ptr %26, align 4
  %28 = add nsw i32 %27, 1
  store i32 %28, ptr %26, align 4
  %29 = getelementptr inbounds nuw %class.ABstats, ptr %5, i32 0, i32 2
  %30 = getelementptr inbounds nuw %struct.ABtracker, ptr %29, i32 0, i32 3
  %31 = load i32, ptr %30, align 4
  %32 = add nsw i32 %31, 1
  store i32 %32, ptr %30, align 4
  %33 = load i32, ptr %4, align 4
  %34 = getelementptr inbounds nuw %class.ABstats, ptr %5, i32 0, i32 2
  %35 = getelementptr inbounds nuw %struct.ABtracker, ptr %34, i32 0, i32 4
  %36 = load i32, ptr %35, align 4
  %37 = add nsw i32 %36, %33
  store i32 %37, ptr %35, align 4
  ret void
}