; Function Attrs: mustprogress nofree norecurse nosync nounwind willreturn memory(argmem: readwrite) uwtable
define void @_ZN7ABstats8IncrNodeEi(ptr nocapture noundef nonnull align 8 dereferenceable(2800) %0, i32 noundef %1) local_unnamed_addr #6 align 2 {
  %3 = getelementptr inbounds nuw i8, ptr %0, i64 256
  %4 = sext i32 %1 to i64
  %5 = getelementptr inbounds [49 x i32], ptr %3, i64 0, i64 %4
  %6 = load i32, ptr %5, align 4
  %7 = add nsw i32 %6, 1
  store i32 %7, ptr %5, align 4
  %8 = getelementptr inbounds i8, ptr %0, i64 452
  %9 = load i32, ptr %8, align 4
  %10 = add nsw i32 %9, 1
  store i32 %10, ptr %8, align 4
  %11 = getelementptr inbounds i8, ptr %0, i64 456
  %12 = load i32, ptr %11, align 8
  %13 = add nsw i32 %12, %1
  store i32 %13, ptr %11, align 8
  %14 = getelementptr inbounds nuw i8, ptr %0, i64 468
  %15 = getelementptr inbounds [49 x i32], ptr %14, i64 0, i64 %4
  %16 = load i32, ptr %15, align 4
  %17 = add nsw i32 %16, 1
  store i32 %17, ptr %15, align 4
  %18 = getelementptr inbounds i8, ptr %0, i64 672
  %19 = load i32, ptr %18, align 8
  %20 = add nsw i32 %19, 1
  store i32 %20, ptr %18, align 8
  %21 = getelementptr inbounds i8, ptr %0, i64 676
  %22 = load i32, ptr %21, align 4
  %23 = add nsw i32 %22, %1
  store i32 %23, ptr %21, align 4
  ret void
}